; Function Attrs: mustprogress uwtable
define void @_ZN5draco17AttributesEncoderC2Ei(ptr noundef nonnull align 8 dereferenceable(72) %0, i32 noundef %1) unnamed_addr #4 align 2 personality ptr @__gxx_personality_v0 {
  store ptr getelementptr inbounds ({ [15 x ptr] }, ptr @_ZTVN5draco17AttributesEncoderE, i64 0, i32 0, i64 2), ptr %0, align 8
  %3 = getelementptr inbounds i8, ptr %0, i64 8
  tail call void @llvm.memset.p0.i64(ptr noundef nonnull align 8 dereferenceable(64) %3, i8 0, i64 64, i1 false)
  invoke void @_ZN5draco17AttributesEncoder14AddAttributeIdEi(ptr noundef nonnull align 8 dereferenceable(72) %0, i32 noundef %1)
          to label %4 unwind label %5

4:                                                ; preds = %2
  ret void

5:                                                ; preds = %2
  %6 = landingpad { ptr, i32 }
          cleanup
  tail call void @_ZN5draco17AttributesEncoderD2Ev(ptr noundef nonnull align 8 dereferenceable(72) %0) #15
  resume { ptr, i32 } %6
}